; ModuleID = 'source-C-CXX/26/1918.c'
source_filename = "source-C-CXX/26/1918.c"
target datalayout = "e-m:e-p270:32:32-p271:32:32-p272:64:64-i64:64-f80:128-n8:16:32:64-S128"
target triple = "x86_64-pc-linux-gnu"

%struct._IO_FILE = type { i32, i8*, i8*, i8*, i8*, i8*, i8*, i8*, i8*, i8*, i8*, i8*, %struct._IO_marker*, %struct._IO_FILE*, i32, i32, i64, i16, i8, [1 x i8], i8*, i64, %struct._IO_codecvt*, %struct._IO_wide_data*, %struct._IO_FILE*, i8*, i64, i32, [20 x i8] }
%struct._IO_marker = type opaque
%struct._IO_codecvt = type opaque
%struct._IO_wide_data = type opaque

@.str = private unnamed_addr constant [3 x i8] c"%d\00", align 1
@.str.1 = private unnamed_addr constant [12 x i8] c"%lf %lf %lf\00", align 1
@.str.2 = private unnamed_addr constant [18 x i8] c"x1=%.5lf;x2=%.5lf\00", align 1
@.str.4 = private unnamed_addr constant [19 x i8] c"x1=%.5lf;x2=-%.5lf\00", align 1
@.str.5 = private unnamed_addr constant [12 x i8] c"x1=x2=%.5lf\00", align 1
@.str.6 = private unnamed_addr constant [14 x i8] c"x1=x2=0.00000\00", align 1
@.str.7 = private unnamed_addr constant [32 x i8] c"x1=%.5lf+%.5lfi;x2=%.5lf-%.5lfi\00", align 1
@.str.8 = private unnamed_addr constant [36 x i8] c"x1=0.00000+%.5lfi;x2=0.00000-%.5lfi\00", align 1
@stdin = external local_unnamed_addr global %struct._IO_FILE*, align 8

; Function Attrs: nofree nounwind sspstrong uwtable
define dso_local i32 @main() local_unnamed_addr #0 {
  %1 = alloca i32, align 4
  %2 = alloca [100 x double], align 16
  %3 = alloca [100 x double], align 16
  %4 = alloca [100 x double], align 16
  %5 = bitcast i32* %1 to i8*
  call void @llvm.lifetime.start.p0i8(i64 4, i8* nonnull %5) #5
  %6 = bitcast [100 x double]* %2 to i8*
  call void @llvm.lifetime.start.p0i8(i64 800, i8* nonnull %6) #5
  %7 = bitcast [100 x double]* %3 to i8*
  call void @llvm.lifetime.start.p0i8(i64 800, i8* nonnull %7) #5
  %8 = bitcast [100 x double]* %4 to i8*
  call void @llvm.lifetime.start.p0i8(i64 800, i8* nonnull %8) #5
  %9 = call i32 (i8*, ...) @__isoc99_scanf(i8* getelementptr inbounds ([3 x i8], [3 x i8]* @.str, i64 0, i64 0), i32* nonnull %1)
  %10 = load i32, i32* %1, align 4, !tbaa !5
  %11 = icmp sgt i32 %10, 0
  br i1 %11, label %14, label %92

12:                                               ; preds = %14
  %13 = icmp sgt i32 %21, 0
  br i1 %13, label %24, label %92

14:                                               ; preds = %0, %14
  %15 = phi i64 [ %20, %14 ], [ 0, %0 ]
  %16 = getelementptr inbounds [100 x double], [100 x double]* %2, i64 0, i64 %15
  %17 = getelementptr inbounds [100 x double], [100 x double]* %3, i64 0, i64 %15
  %18 = getelementptr inbounds [100 x double], [100 x double]* %4, i64 0, i64 %15
  %19 = call i32 (i8*, ...) @__isoc99_scanf(i8* getelementptr inbounds ([12 x i8], [12 x i8]* @.str.1, i64 0, i64 0), double* nonnull %16, double* nonnull %17, double* nonnull %18)
  %20 = add nuw nsw i64 %15, 1
  %21 = load i32, i32* %1, align 4, !tbaa !5
  %22 = sext i32 %21 to i64
  %23 = icmp slt i64 %20, %22
  br i1 %23, label %14, label %12, !llvm.loop !9

24:                                               ; preds = %12, %87
  %25 = phi i64 [ %88, %87 ], [ 0, %12 ]
  %26 = getelementptr inbounds [100 x double], [100 x double]* %2, i64 0, i64 %25
  %27 = load double, double* %26, align 8, !tbaa !11
  %28 = getelementptr inbounds [100 x double], [100 x double]* %3, i64 0, i64 %25
  %29 = load double, double* %28, align 8, !tbaa !11
  %30 = getelementptr inbounds [100 x double], [100 x double]* %4, i64 0, i64 %25
  %31 = load double, double* %30, align 8, !tbaa !11
  %32 = fmul double %29, %29
  %33 = fmul double %27, 4.000000e+00
  %34 = fmul double %33, %31
  %35 = fsub double %32, %34
  %36 = fcmp ogt double %35, 0.000000e+00
  br i1 %36, label %37, label %57

37:                                               ; preds = %24
  %38 = fcmp une double %29, 0.000000e+00
  br i1 %38, label %39, label %50

39:                                               ; preds = %37
  %40 = fneg double %29
  %41 = call double @sqrt(double %35) #5
  %42 = fsub double %41, %29
  %43 = fmul double %27, 2.000000e+00
  %44 = fdiv double %42, %43
  %45 = call double @sqrt(double %35) #5
  %46 = fsub double %40, %45
  %47 = fdiv double %46, %43
  %48 = call i32 (i8*, ...) @printf(i8* nonnull dereferenceable(1) getelementptr inbounds ([18 x i8], [18 x i8]* @.str.2, i64 0, i64 0), double %44, double %47)
  %49 = call i32 @putchar(i32 10)
  br label %87

50:                                               ; preds = %37
  %51 = call double @sqrt(double %35) #5
  %52 = fmul double %27, 2.000000e+00
  %53 = fdiv double %51, %52
  %54 = call double @sqrt(double %35) #5
  %55 = fdiv double %54, %52
  %56 = call i32 (i8*, ...) @printf(i8* nonnull dereferenceable(1) getelementptr inbounds ([19 x i8], [19 x i8]* @.str.4, i64 0, i64 0), double %53, double %55)
  br label %87

57:                                               ; preds = %24
  %58 = fcmp oeq double %35, 0.000000e+00
  %59 = fcmp une double %29, 0.000000e+00
  br i1 %58, label %60, label %70

60:                                               ; preds = %57
  br i1 %59, label %61, label %66

61:                                               ; preds = %60
  %62 = fneg double %29
  %63 = fmul double %27, 2.000000e+00
  %64 = fdiv double %62, %63
  %65 = call i32 (i8*, ...) @printf(i8* nonnull dereferenceable(1) getelementptr inbounds ([12 x i8], [12 x i8]* @.str.5, i64 0, i64 0), double %64)
  br label %68

66:                                               ; preds = %60
  %67 = call i32 (i8*, ...) @printf(i8* nonnull dereferenceable(1) getelementptr inbounds ([14 x i8], [14 x i8]* @.str.6, i64 0, i64 0))
  br label %68

68:                                               ; preds = %66, %61
  %69 = call i32 @putchar(i32 10)
  br label %87

70:                                               ; preds = %57
  br i1 %59, label %71, label %79

71:                                               ; preds = %70
  %72 = fneg double %29
  %73 = fmul double %27, 2.000000e+00
  %74 = fdiv double %72, %73
  %75 = fneg double %35
  %76 = call double @sqrt(double %75) #5
  %77 = fdiv double %76, %73
  %78 = call i32 (i8*, ...) @printf(i8* nonnull dereferenceable(1) getelementptr inbounds ([32 x i8], [32 x i8]* @.str.7, i64 0, i64 0), double %74, double %77, double %74, double %77)
  br label %85

79:                                               ; preds = %70
  %80 = fneg double %35
  %81 = call double @sqrt(double %80) #5
  %82 = fmul double %27, 2.000000e+00
  %83 = fdiv double %81, %82
  %84 = call i32 (i8*, ...) @printf(i8* nonnull dereferenceable(1) getelementptr inbounds ([36 x i8], [36 x i8]* @.str.8, i64 0, i64 0), double %83, double %83)
  br label %85

85:                                               ; preds = %79, %71
  %86 = call i32 @putchar(i32 10)
  br label %87

87:                                               ; preds = %50, %39, %85, %68
  %88 = add nuw nsw i64 %25, 1
  %89 = load i32, i32* %1, align 4, !tbaa !5
  %90 = sext i32 %89 to i64
  %91 = icmp slt i64 %88, %90
  br i1 %91, label %24, label %92, !llvm.loop !13

92:                                               ; preds = %87, %0, %12
  %93 = load %struct._IO_FILE*, %struct._IO_FILE** @stdin, align 8, !tbaa !14
  %94 = call i32 @getc(%struct._IO_FILE* %93) #5
  %95 = load %struct._IO_FILE*, %struct._IO_FILE** @stdin, align 8, !tbaa !14
  %96 = call i32 @getc(%struct._IO_FILE* %95) #5
  call void @llvm.lifetime.end.p0i8(i64 800, i8* nonnull %8) #5
  call void @llvm.lifetime.end.p0i8(i64 800, i8* nonnull %7) #5
  call void @llvm.lifetime.end.p0i8(i64 800, i8* nonnull %6) #5
  call void @llvm.lifetime.end.p0i8(i64 4, i8* nonnull %5) #5
  ret i32 0
}

; Function Attrs: argmemonly mustprogress nofree nosync nounwind willreturn
declare void @llvm.lifetime.start.p0i8(i64 immarg, i8* nocapture) #1

; Function Attrs: nofree nounwind
declare noundef i32 @__isoc99_scanf(i8* nocapture noundef readonly, ...) local_unnamed_addr #2

; Function Attrs: mustprogress nofree nounwind willreturn
declare double @sqrt(double) local_unnamed_addr #3

; Function Attrs: nofree nounwind
declare noundef i32 @printf(i8* nocapture noundef readonly, ...) local_unnamed_addr #2

; Function Attrs: argmemonly mustprogress nofree nosync nounwind willreturn
declare void @llvm.lifetime.end.p0i8(i64 immarg, i8* nocapture) #1

; Function Attrs: nofree nounwind
declare noundef i32 @getc(%struct._IO_FILE* nocapture noundef) local_unnamed_addr #2

; Function Attrs: nofree nounwind
declare noundef i32 @putchar(i32 noundef) local_unnamed_addr #4


!llvm.module.flags = !{!0, !1, !2, !3}
!llvm.ident = !{!4}

!0 = !{i32 1, !"wchar_size", i32 4}
!1 = !{i32 7, !"PIC Level", i32 2}
!2 = !{i32 7, !"PIE Level", i32 2}
!3 = !{i32 7, !"uwtable", i32 1}
!4 = !{!"clang version 13.0.0"}
!5 = !{!6, !6, i64 0}
!6 = !{!"int", !7, i64 0}
!7 = !{!"omnipotent char", !8, i64 0}
!8 = !{!"Simple C/C++ TBAA"}
!9 = distinct !{!9, !10}
!10 = !{!"llvm.loop.mustprogress"}
!11 = !{!12, !12, i64 0}
!12 = !{!"double", !7, i64 0}
!13 = distinct !{!13, !10}
!14 = !{!15, !15, i64 0}
!15 = !{!"any pointer", !7, i64 0}
